; Function Attrs: mustprogress uwtable
define hidden void @_ZN4cvc58internal7options14OptionsHandler13showCopyrightERKNSt7__cxx1112basic_stringIcSt11char_traitsIcESaIcEEEb(ptr noundef nonnull readnone align 8 captures(none) dereferenceable(8) %0, ptr noundef nonnull readnone align 8 captures(none) dereferenceable(32) %1, i1 noundef zeroext %2) local_unnamed_addr #5 align 2 personality ptr @__gxx_personality_v0 {
  %4 = alloca %"class.std::__cxx11::basic_string", align 8
  br i1 %2, label %5, label %36

5:                                                ; preds = %3
  call void @llvm.lifetime.start.p0(i64 32, ptr nonnull %4) #30
  call void @_ZN4cvc58internal13Configuration9copyrightB5cxx11Ev(ptr dead_on_unwind nonnull writable sret(%"class.std::__cxx11::basic_string") align 8 %4)
  %6 = load ptr, ptr %4, align 8, !tbaa !222
  %7 = getelementptr inbounds nuw i8, ptr %4, i64 8
  %8 = load i64, ptr %7, align 8, !tbaa !223
  %9 = invoke noundef nonnull align 8 dereferenceable(8) ptr @_ZSt16__ostream_insertIcSt11char_traitsIcEERSt13basic_ostreamIT_T0_ES6_PKS3_l(ptr noundef nonnull align 8 dereferenceable(8) @_ZSt4cout, ptr noundef %6, i64 noundef %8)
          to label %_ZStlsIcSt11char_traitsIcESaIcEERSt13basic_ostreamIT_T0_ES7_RKNSt7__cxx1112basic_stringIS4_S5_T1_EE.exit unwind label %37

_ZStlsIcSt11char_traitsIcESaIcEERSt13basic_ostreamIT_T0_ES7_RKNSt7__cxx1112basic_stringIS4_S5_T1_EE.exit: ; preds = %5
  %10 = load ptr, ptr %9, align 8, !tbaa !227
  %11 = getelementptr i8, ptr %10, i64 -24
  %12 = load i64, ptr %11, align 8
  %13 = getelementptr inbounds i8, ptr %9, i64 %12
  %14 = getelementptr inbounds nuw i8, ptr %13, i64 240
  %15 = load ptr, ptr %14, align 8, !tbaa !277
  %.not.i.i.i = icmp eq ptr %15, null
  br i1 %.not.i.i.i, label %16, label %_ZSt13__check_facetISt5ctypeIcEERKT_PS3_.exit.i.i

16:                                               ; preds = %_ZStlsIcSt11char_traitsIcESaIcEERSt13basic_ostreamIT_T0_ES7_RKNSt7__cxx1112basic_stringIS4_S5_T1_EE.exit
  invoke void @_ZSt16__throw_bad_castv() #31
          to label %.noexc unwind label %37

.noexc:                                           ; preds = %16
  unreachable

_ZSt13__check_facetISt5ctypeIcEERKT_PS3_.exit.i.i: ; preds = %_ZStlsIcSt11char_traitsIcESaIcEERSt13basic_ostreamIT_T0_ES7_RKNSt7__cxx1112basic_stringIS4_S5_T1_EE.exit
  %17 = getelementptr inbounds nuw i8, ptr %15, i64 56
  %18 = load i8, ptr %17, align 8, !tbaa !291
  %.not.i1.i.i = icmp eq i8 %18, 0
  br i1 %.not.i1.i.i, label %22, label %19

19:                                               ; preds = %_ZSt13__check_facetISt5ctypeIcEERKT_PS3_.exit.i.i
  %20 = getelementptr inbounds nuw i8, ptr %15, i64 67
  %21 = load i8, ptr %20, align 1, !tbaa !224
  br label %_ZNKSt9basic_iosIcSt11char_traitsIcEE5widenEc.exit.i

22:                                               ; preds = %_ZSt13__check_facetISt5ctypeIcEERKT_PS3_.exit.i.i
  invoke void @_ZNKSt5ctypeIcE13_M_widen_initEv(ptr noundef nonnull align 8 dereferenceable(570) %15)
          to label %.noexc5 unwind label %37

.noexc5:                                          ; preds = %22
  %23 = load ptr, ptr %15, align 8, !tbaa !227
  %24 = getelementptr inbounds nuw i8, ptr %23, i64 48
  %25 = load ptr, ptr %24, align 8
  %26 = invoke noundef signext i8 %25(ptr noundef nonnull align 8 dereferenceable(570) %15, i8 noundef signext 10)
          to label %_ZNKSt9basic_iosIcSt11char_traitsIcEE5widenEc.exit.i unwind label %37

_ZNKSt9basic_iosIcSt11char_traitsIcEE5widenEc.exit.i: ; preds = %.noexc5, %19
  %.0.i.i.i = phi i8 [ %21, %19 ], [ %26, %.noexc5 ]
  %27 = invoke noundef nonnull align 8 dereferenceable(8) ptr @_ZNSo3putEc(ptr noundef nonnull align 8 dereferenceable(8) %9, i8 noundef signext %.0.i.i.i)
          to label %.noexc7 unwind label %37

.noexc7:                                          ; preds = %_ZNKSt9basic_iosIcSt11char_traitsIcEE5widenEc.exit.i
  %28 = invoke noundef nonnull align 8 dereferenceable(8) ptr @_ZNSo5flushEv(ptr noundef nonnull align 8 dereferenceable(8) %27)
          to label %_ZNSolsEPFRSoS_E.exit unwind label %37

_ZNSolsEPFRSoS_E.exit:                            ; preds = %.noexc7
  %29 = load ptr, ptr %4, align 8, !tbaa !222
  %30 = getelementptr inbounds nuw i8, ptr %4, i64 16
  %31 = icmp eq ptr %29, %30
  br i1 %31, label %_ZNKSt7__cxx1112basic_stringIcSt11char_traitsIcESaIcEE11_M_is_localEv.exit.thread.i.i, label %_ZNKSt7__cxx1112basic_stringIcSt11char_traitsIcESaIcEE11_M_is_localEv.exit.i.i

_ZNKSt7__cxx1112basic_stringIcSt11char_traitsIcESaIcEE11_M_is_localEv.exit.thread.i.i: ; preds = %_ZNSolsEPFRSoS_E.exit
  %32 = load i64, ptr %7, align 8, !tbaa !223
  %33 = icmp ult i64 %32, 16
  call void @llvm.assume(i1 %33)
  br label %_ZNSt7__cxx1112basic_stringIcSt11char_traitsIcESaIcEED2Ev.exit

_ZNKSt7__cxx1112basic_stringIcSt11char_traitsIcESaIcEE11_M_is_localEv.exit.i.i: ; preds = %_ZNSolsEPFRSoS_E.exit
  %34 = load i64, ptr %30, align 8, !tbaa !224
  %35 = add i64 %34, 1
  call void @_ZdlPvm(ptr noundef %29, i64 noundef %35) #32
  br label %_ZNSt7__cxx1112basic_stringIcSt11char_traitsIcESaIcEED2Ev.exit

_ZNSt7__cxx1112basic_stringIcSt11char_traitsIcESaIcEED2Ev.exit: ; preds = %_ZNKSt7__cxx1112basic_stringIcSt11char_traitsIcESaIcEE11_M_is_localEv.exit.thread.i.i, %_ZNKSt7__cxx1112basic_stringIcSt11char_traitsIcESaIcEE11_M_is_localEv.exit.i.i
  call void @llvm.lifetime.end.p0(i64 32, ptr nonnull %4) #30
  br label %36

36:                                               ; preds = %3, %_ZNSt7__cxx1112basic_stringIcSt11char_traitsIcESaIcEED2Ev.exit
  ret void

37:                                               ; preds = %.noexc7, %_ZNKSt9basic_iosIcSt11char_traitsIcEE5widenEc.exit.i, %.noexc5, %22, %16, %5
  %38 = landingpad { ptr, i32 }
          cleanup
  %39 = load ptr, ptr %4, align 8, !tbaa !222
  %40 = getelementptr inbounds nuw i8, ptr %4, i64 16
  %41 = icmp eq ptr %39, %40
  br i1 %41, label %_ZNKSt7__cxx1112basic_stringIcSt11char_traitsIcESaIcEE11_M_is_localEv.exit.thread.i.i3, label %_ZNKSt7__cxx1112basic_stringIcSt11char_traitsIcESaIcEE11_M_is_localEv.exit.i.i2

_ZNKSt7__cxx1112basic_stringIcSt11char_traitsIcESaIcEE11_M_is_localEv.exit.thread.i.i3: ; preds = %37
  %42 = load i64, ptr %7, align 8, !tbaa !223
  %43 = icmp ult i64 %42, 16
  call void @llvm.assume(i1 %43)
  br label %_ZNSt7__cxx1112basic_stringIcSt11char_traitsIcESaIcEED2Ev.exit4

_ZNKSt7__cxx1112basic_stringIcSt11char_traitsIcESaIcEE11_M_is_localEv.exit.i.i2: ; preds = %37
  %44 = load i64, ptr %40, align 8, !tbaa !224
  %45 = add i64 %44, 1
  call void @_ZdlPvm(ptr noundef %39, i64 noundef %45) #32
  br label %_ZNSt7__cxx1112basic_stringIcSt11char_traitsIcESaIcEED2Ev.exit4

_ZNSt7__cxx1112basic_stringIcSt11char_traitsIcESaIcEED2Ev.exit4: ; preds = %_ZNKSt7__cxx1112basic_stringIcSt11char_traitsIcESaIcEE11_M_is_localEv.exit.thread.i.i3, %_ZNKSt7__cxx1112basic_stringIcSt11char_traitsIcESaIcEE11_M_is_localEv.exit.i.i2
  call void @llvm.lifetime.end.p0(i64 32, ptr nonnull %4) #30
  resume { ptr, i32 } %38
}